target datalayout = "e-m:e-p270:32:32-p271:32:32-p272:64:64-i64:64-i128:128-f80:128-n8:16:32:64-S128"
target triple = "x86_64-pc-linux-gnu"

%struct.cmac_data_st = type { ptr, ptr, %struct.PROV_CIPHER }
%struct.PROV_CIPHER = type { ptr, ptr, ptr }

@.str = private unnamed_addr constant [54 x i8] c"../openssl/providers/implementations/macs/cmac_prov.c\00", align 1

; Function Attrs: nounwind uwtable
define internal void @cmac_free(ptr noundef %0) #0 {
  %2 = alloca ptr, align 8
  %3 = alloca ptr, align 8
  store ptr %0, ptr %2, align 8, !tbaa !3
  call void @llvm.lifetime.start.p0(i64 8, ptr %3) #4
  %4 = load ptr, ptr %2, align 8, !tbaa !3
  store ptr %4, ptr %3, align 8, !tbaa !7
  %5 = load ptr, ptr %3, align 8, !tbaa !7
  %6 = icmp ne ptr %5, null
  br i1 %6, label %7, label %14

7:                                                ; preds = %1
  %8 = load ptr, ptr %3, align 8, !tbaa !7
  %9 = getelementptr inbounds nuw %struct.cmac_data_st, ptr %8, i32 0, i32 1
  %10 = load ptr, ptr %9, align 8, !tbaa !9
  call void @CMAC_CTX_free(ptr noundef %10)
  %11 = load ptr, ptr %3, align 8, !tbaa !7
  %12 = getelementptr inbounds nuw %struct.cmac_data_st, ptr %11, i32 0, i32 2
  call void @ossl_prov_cipher_reset(ptr noundef %12)
  %13 = load ptr, ptr %3, align 8, !tbaa !7
  call void @CRYPTO_free(ptr noundef %13, ptr noundef @.str, i32 noundef 82)
  br label %14

14:                                               ; preds = %7, %1
  call void @llvm.lifetime.end.p0(i64 8, ptr %3) #4
  ret void
}

; Function Attrs: nounwind uwtable
define internal ptr @cmac_new(ptr noundef %0) #0 {
  %2 = alloca ptr, align 8
  %3 = alloca ptr, align 8
  %4 = alloca ptr, align 8
  %5 = alloca i32, align 4
  store ptr %0, ptr %3, align 8, !tbaa !3
  call void @llvm.lifetime.start.p0(i64 8, ptr %4) #4
  %6 = call i32 @ossl_prov_is_running()
  %7 = icmp ne i32 %6, 0
  br i1 %7, label %9, label %8

8:                                                ; preds = %1
  store ptr null, ptr %2, align 8
  store i32 1, ptr %5, align 4
  br label %25

9:                                                ; preds = %1
  %10 = call noalias ptr @CRYPTO_zalloc(i64 noundef 40, ptr noundef @.str, i32 noundef 63)
  store ptr %10, ptr %4, align 8, !tbaa !7
  %11 = icmp eq ptr %10, null
  br i1 %11, label %17, label %12

12:                                               ; preds = %9
  %13 = call ptr @CMAC_CTX_new()
  %14 = load ptr, ptr %4, align 8, !tbaa !7
  %15 = getelementptr inbounds nuw %struct.cmac_data_st, ptr %14, i32 0, i32 1
  store ptr %13, ptr %15, align 8, !tbaa !9
  %16 = icmp eq ptr %13, null
  br i1 %16, label %17, label %19

17:                                               ; preds = %12, %9
  %18 = load ptr, ptr %4, align 8, !tbaa !7
  call void @CRYPTO_free(ptr noundef %18, ptr noundef @.str, i32 noundef 65)
  store ptr null, ptr %4, align 8, !tbaa !7
  br label %23

19:                                               ; preds = %12
  %20 = load ptr, ptr %3, align 8, !tbaa !3
  %21 = load ptr, ptr %4, align 8, !tbaa !7
  %22 = getelementptr inbounds nuw %struct.cmac_data_st, ptr %21, i32 0, i32 0
  store ptr %20, ptr %22, align 8, !tbaa !15
  br label %23

23:                                               ; preds = %19, %17
  %24 = load ptr, ptr %4, align 8, !tbaa !7
  store ptr %24, ptr %2, align 8
  store i32 1, ptr %5, align 4
  br label %25

25:                                               ; preds = %23, %8
  call void @llvm.lifetime.end.p0(i64 8, ptr %4) #4
  %26 = load ptr, ptr %2, align 8
  ret ptr %26
}

; Function Attrs: nounwind uwtable
define internal ptr @cmac_dup(ptr noundef %0) #0 {
  %2 = alloca ptr, align 8
  %3 = alloca ptr, align 8
  %4 = alloca ptr, align 8
  %5 = alloca ptr, align 8
  %6 = alloca i32, align 4
  store ptr %0, ptr %3, align 8, !tbaa !3
  call void @llvm.lifetime.start.p0(i64 8, ptr %4) #4
  %7 = load ptr, ptr %3, align 8, !tbaa !3
  store ptr %7, ptr %4, align 8, !tbaa !7
  call void @llvm.lifetime.start.p0(i64 8, ptr %5) #4
  %8 = call i32 @ossl_prov_is_running()
  %9 = icmp ne i32 %8, 0
  br i1 %9, label %11, label %10

10:                                               ; preds = %1
  store ptr null, ptr %2, align 8
  store i32 1, ptr %6, align 4
  br label %39

11:                                               ; preds = %1
  %12 = load ptr, ptr %4, align 8, !tbaa !7
  %13 = getelementptr inbounds nuw %struct.cmac_data_st, ptr %12, i32 0, i32 0
  %14 = load ptr, ptr %13, align 8, !tbaa !15
  %15 = call ptr @cmac_new(ptr noundef %14)
  store ptr %15, ptr %5, align 8, !tbaa !7
  %16 = load ptr, ptr %5, align 8, !tbaa !7
  %17 = icmp eq ptr %16, null
  br i1 %17, label %18, label %19

18:                                               ; preds = %11
  store ptr null, ptr %2, align 8
  store i32 1, ptr %6, align 4
  br label %39

19:                                               ; preds = %11
  %20 = load ptr, ptr %5, align 8, !tbaa !7
  %21 = getelementptr inbounds nuw %struct.cmac_data_st, ptr %20, i32 0, i32 1
  %22 = load ptr, ptr %21, align 8, !tbaa !9
  %23 = load ptr, ptr %4, align 8, !tbaa !7
  %24 = getelementptr inbounds nuw %struct.cmac_data_st, ptr %23, i32 0, i32 1
  %25 = load ptr, ptr %24, align 8, !tbaa !9
  %26 = call i32 @CMAC_CTX_copy(ptr noundef %22, ptr noundef %25)
  %27 = icmp ne i32 %26, 0
  br i1 %27, label %28, label %35

28:                                               ; preds = %19
  %29 = load ptr, ptr %5, align 8, !tbaa !7
  %30 = getelementptr inbounds nuw %struct.cmac_data_st, ptr %29, i32 0, i32 2
  %31 = load ptr, ptr %4, align 8, !tbaa !7
  %32 = getelementptr inbounds nuw %struct.cmac_data_st, ptr %31, i32 0, i32 2
  %33 = call i32 @ossl_prov_cipher_copy(ptr noundef %30, ptr noundef %32)
  %34 = icmp ne i32 %33, 0
  br i1 %34, label %37, label %35

35:                                               ; preds = %28, %19
  %36 = load ptr, ptr %5, align 8, !tbaa !7
  call void @cmac_free(ptr noundef %36)
  store ptr null, ptr %2, align 8
  store i32 1, ptr %6, align 4
  br label %39

37:                                               ; preds = %28
  %38 = load ptr, ptr %5, align 8, !tbaa !7
  store ptr %38, ptr %2, align 8
  store i32 1, ptr %6, align 4
  br label %39

39:                                               ; preds = %37, %35, %18, %10
  call void @llvm.lifetime.end.p0(i64 8, ptr %5) #4
  call void @llvm.lifetime.end.p0(i64 8, ptr %4) #4
  %40 = load ptr, ptr %2, align 8
  ret ptr %40
}