; Function Attrs: nounwind uwtable
define internal ptr @cmac_dup(ptr noundef %0) #0 {
  %2 = tail call i32 @ossl_prov_is_running() #3
  %.not = icmp eq i32 %2, 0
  br i1 %.not, label %cmac_new.exit.thread, label %3

3:                                                ; preds = %1
  %4 = load ptr, ptr %0, align 8, !tbaa !12
  %5 = tail call i32 @ossl_prov_is_running() #3
  %.not.i = icmp eq i32 %5, 0
  br i1 %.not.i, label %cmac_new.exit.thread, label %6

6:                                                ; preds = %3
  %7 = tail call noalias ptr @CRYPTO_zalloc(i64 noundef 40, ptr noundef nonnull @.str, i32 noundef 63) #3
  %8 = icmp eq ptr %7, null
  br i1 %8, label %cmac_new.exit.thread.sink.split, label %9

9:                                                ; preds = %6
  %10 = tail call ptr @CMAC_CTX_new() #3
  %11 = getelementptr inbounds nuw i8, ptr %7, i64 8
  store ptr %10, ptr %11, align 8, !tbaa !3
  %12 = icmp eq ptr %10, null
  br i1 %12, label %cmac_new.exit.thread.sink.split, label %13

13:                                               ; preds = %9
  store ptr %4, ptr %7, align 8, !tbaa !12
  %14 = getelementptr inbounds nuw i8, ptr %0, i64 8
  %15 = load ptr, ptr %14, align 8, !tbaa !3
  %16 = tail call i32 @CMAC_CTX_copy(ptr noundef nonnull %10, ptr noundef %15) #3
  %.not11 = icmp eq i32 %16, 0
  br i1 %.not11, label %cmac_free.exit, label %17

17:                                               ; preds = %13
  %18 = getelementptr inbounds nuw i8, ptr %7, i64 16
  %19 = getelementptr inbounds nuw i8, ptr %0, i64 16
  %20 = tail call i32 @ossl_prov_cipher_copy(ptr noundef nonnull %18, ptr noundef nonnull %19) #3
  %.not12 = icmp eq i32 %20, 0
  br i1 %.not12, label %cmac_free.exit, label %cmac_new.exit.thread

cmac_free.exit:                                   ; preds = %17, %13
  %21 = load ptr, ptr %11, align 8, !tbaa !3
  tail call void @CMAC_CTX_free(ptr noundef %21) #3
  %22 = getelementptr inbounds nuw i8, ptr %7, i64 16
  tail call void @ossl_prov_cipher_reset(ptr noundef nonnull %22) #3
  br label %cmac_new.exit.thread.sink.split

cmac_new.exit.thread.sink.split:                  ; preds = %6, %9, %cmac_free.exit
  %.sink = phi i32 [ 82, %cmac_free.exit ], [ 65, %9 ], [ 65, %6 ]
  tail call void @CRYPTO_free(ptr noundef %7, ptr noundef nonnull @.str, i32 noundef %.sink) #3
  br label %cmac_new.exit.thread

cmac_new.exit.thread:                             ; preds = %cmac_new.exit.thread.sink.split, %3, %17, %1
  %.0 = phi ptr [ null, %1 ], [ %7, %17 ], [ null, %3 ], [ null, %cmac_new.exit.thread.sink.split ]
  ret ptr %.0
}